target datalayout = "e-m:e-p270:32:32-p271:32:32-p272:64:64-i64:64-i128:128-f80:128-n8:16:32:64-S128"
target triple = "x86_64-pc-linux-gnu"

%struct.wc_Sha512 = type { [8 x i64], [16 x i64], i32, i64, i64, ptr }
%union.Digest = type { %struct.wc_Sha512 }

; Function Attrs: nounwind uwtable
define internal i32 @CreateECCEncodedSig(ptr noundef %0, i32 noundef %1, i32 noundef %2) #0 {
  %4 = alloca i32, align 4
  %5 = alloca ptr, align 8
  %6 = alloca i32, align 4
  %7 = alloca i32, align 4
  %8 = alloca %union.Digest, align 16
  %9 = alloca i32, align 4
  %10 = alloca i32, align 4
  %11 = alloca i32, align 4
  store ptr %0, ptr %5, align 8, !tbaa !8
  store i32 %1, ptr %6, align 4, !tbaa !10
  store i32 %2, ptr %7, align 4, !tbaa !10
  call void @llvm.lifetime.start.p0(i64 224, ptr %8) #8
  call void @llvm.lifetime.start.p0(i64 4, ptr %9) #8
  store i32 0, ptr %9, align 4, !tbaa !10
  call void @llvm.lifetime.start.p0(i64 4, ptr %10) #8
  store i32 -173, ptr %10, align 4, !tbaa !10
  %12 = load i32, ptr %7, align 4, !tbaa !10
  switch i32 %12, label %58 [
    i32 4, label %13
    i32 5, label %28
    i32 6, label %43
  ]

13:                                               ; preds = %3
  %14 = call i32 @wc_InitSha256(ptr noundef %8)
  store i32 %14, ptr %10, align 4, !tbaa !10
  %15 = load i32, ptr %10, align 4, !tbaa !10
  %16 = icmp eq i32 %15, 0
  br i1 %16, label %17, label %27

17:                                               ; preds = %13
  %18 = load ptr, ptr %5, align 8, !tbaa !8
  %19 = load i32, ptr %6, align 4, !tbaa !10
  %20 = call i32 @wc_Sha256Update(ptr noundef %8, ptr noundef %18, i32 noundef %19)
  store i32 %20, ptr %10, align 4, !tbaa !10
  %21 = load i32, ptr %10, align 4, !tbaa !10
  %22 = icmp eq i32 %21, 0
  br i1 %22, label %23, label %26

23:                                               ; preds = %17
  %24 = load ptr, ptr %5, align 8, !tbaa !8
  %25 = call i32 @wc_Sha256Final(ptr noundef %8, ptr noundef %24)
  store i32 %25, ptr %10, align 4, !tbaa !10
  br label %26

26:                                               ; preds = %23, %17
  call void @wc_Sha256Free(ptr noundef %8)
  br label %27

27:                                               ; preds = %26, %13
  store i32 32, ptr %9, align 4, !tbaa !10
  br label %59

28:                                               ; preds = %3
  %29 = call i32 @wc_InitSha384(ptr noundef %8)
  store i32 %29, ptr %10, align 4, !tbaa !10
  %30 = load i32, ptr %10, align 4, !tbaa !10
  %31 = icmp eq i32 %30, 0
  br i1 %31, label %32, label %42

32:                                               ; preds = %28
  %33 = load ptr, ptr %5, align 8, !tbaa !8
  %34 = load i32, ptr %6, align 4, !tbaa !10
  %35 = call i32 @wc_Sha384Update(ptr noundef %8, ptr noundef %33, i32 noundef %34)
  store i32 %35, ptr %10, align 4, !tbaa !10
  %36 = load i32, ptr %10, align 4, !tbaa !10
  %37 = icmp eq i32 %36, 0
  br i1 %37, label %38, label %41

38:                                               ; preds = %32
  %39 = load ptr, ptr %5, align 8, !tbaa !8
  %40 = call i32 @wc_Sha384Final(ptr noundef %8, ptr noundef %39)
  store i32 %40, ptr %10, align 4, !tbaa !10
  br label %41

41:                                               ; preds = %38, %32
  call void @wc_Sha384Free(ptr noundef %8)
  br label %42

42:                                               ; preds = %41, %28
  store i32 48, ptr %9, align 4, !tbaa !10
  br label %59

43:                                               ; preds = %3
  %44 = call i32 @wc_InitSha512(ptr noundef %8)
  store i32 %44, ptr %10, align 4, !tbaa !10
  %45 = load i32, ptr %10, align 4, !tbaa !10
  %46 = icmp eq i32 %45, 0
  br i1 %46, label %47, label %57

47:                                               ; preds = %43
  %48 = load ptr, ptr %5, align 8, !tbaa !8
  %49 = load i32, ptr %6, align 4, !tbaa !10
  %50 = call i32 @wc_Sha512Update(ptr noundef %8, ptr noundef %48, i32 noundef %49)
  store i32 %50, ptr %10, align 4, !tbaa !10
  %51 = load i32, ptr %10, align 4, !tbaa !10
  %52 = icmp eq i32 %51, 0
  br i1 %52, label %53, label %56

53:                                               ; preds = %47
  %54 = load ptr, ptr %5, align 8, !tbaa !8
  %55 = call i32 @wc_Sha512Final(ptr noundef %8, ptr noundef %54)
  store i32 %55, ptr %10, align 4, !tbaa !10
  br label %56

56:                                               ; preds = %53, %47
  call void @wc_Sha512Free(ptr noundef %8)
  br label %57

57:                                               ; preds = %56, %43
  store i32 64, ptr %9, align 4, !tbaa !10
  br label %59

58:                                               ; preds = %3
  store i32 -173, ptr %10, align 4, !tbaa !10
  br label %59

59:                                               ; preds = %58, %57, %42, %27
  %60 = load i32, ptr %10, align 4, !tbaa !10
  %61 = icmp ne i32 %60, 0
  br i1 %61, label %62, label %64

62:                                               ; preds = %59
  %63 = load i32, ptr %10, align 4, !tbaa !10
  store i32 %63, ptr %4, align 4
  store i32 1, ptr %11, align 4
  br label %66

64:                                               ; preds = %59
  %65 = load i32, ptr %9, align 4, !tbaa !10
  store i32 %65, ptr %4, align 4
  store i32 1, ptr %11, align 4
  br label %66

66:                                               ; preds = %64, %62
  call void @llvm.lifetime.end.p0(i64 4, ptr %10) #8
  call void @llvm.lifetime.end.p0(i64 4, ptr %9) #8
  call void @llvm.lifetime.end.p0(i64 224, ptr %8) #8
  %67 = load i32, ptr %4, align 4
  ret i32 %67
}