; Function Attrs: nounwind uwtable
define internal fastcc range(i32 1, 0) i32 @CreateECCEncodedSig(ptr noundef %0, i32 noundef range(i32 0, 65536) %1, i32 noundef range(i32 0, 256) %2) unnamed_addr #0 {
  %4 = alloca %union.Digest, align 16
  call void @llvm.lifetime.start.p0(i64 224, ptr nonnull %4) #11
  %trunc = trunc nuw i32 %2 to i8
  switch i8 %trunc, label %.thread [
    i8 4, label %5
    i8 5, label %14
    i8 6, label %23
  ]

5:                                                ; preds = %3
  %6 = call i32 @wc_InitSha256(ptr noundef nonnull %4) #11
  %7 = icmp eq i32 %6, 0
  br i1 %7, label %8, label %.thread

8:                                                ; preds = %5
  %9 = call i32 @wc_Sha256Update(ptr noundef nonnull %4, ptr noundef %0, i32 noundef %1) #11
  %10 = icmp eq i32 %9, 0
  br i1 %10, label %11, label %13

11:                                               ; preds = %8
  %12 = call i32 @wc_Sha256Final(ptr noundef nonnull %4, ptr noundef %0) #11
  br label %13

13:                                               ; preds = %11, %8
  %.1 = phi i32 [ %12, %11 ], [ %9, %8 ]
  call void @wc_Sha256Free(ptr noundef nonnull %4) #11
  br label %32

14:                                               ; preds = %3
  %15 = call i32 @wc_InitSha384(ptr noundef nonnull %4) #11
  %16 = icmp eq i32 %15, 0
  br i1 %16, label %17, label %.thread

17:                                               ; preds = %14
  %18 = call i32 @wc_Sha384Update(ptr noundef nonnull %4, ptr noundef %0, i32 noundef %1) #11
  %19 = icmp eq i32 %18, 0
  br i1 %19, label %20, label %22

20:                                               ; preds = %17
  %21 = call i32 @wc_Sha384Final(ptr noundef nonnull %4, ptr noundef %0) #11
  br label %22

22:                                               ; preds = %20, %17
  %.4 = phi i32 [ %21, %20 ], [ %18, %17 ]
  call void @wc_Sha384Free(ptr noundef nonnull %4) #11
  br label %32

23:                                               ; preds = %3
  %24 = call i32 @wc_InitSha512(ptr noundef nonnull %4) #11
  %25 = icmp eq i32 %24, 0
  br i1 %25, label %26, label %.thread

26:                                               ; preds = %23
  %27 = call i32 @wc_Sha512Update(ptr noundef nonnull %4, ptr noundef %0, i32 noundef %1) #11
  %28 = icmp eq i32 %27, 0
  br i1 %28, label %29, label %31

29:                                               ; preds = %26
  %30 = call i32 @wc_Sha512Final(ptr noundef nonnull %4, ptr noundef %0) #11
  br label %31

31:                                               ; preds = %29, %26
  %.6 = phi i32 [ %30, %29 ], [ %27, %26 ]
  call void @wc_Sha512Free(ptr noundef nonnull %4) #11
  br label %32

32:                                               ; preds = %31, %22, %13
  %.019 = phi i32 [ 32, %13 ], [ 48, %22 ], [ 64, %31 ]
  %.2 = phi i32 [ %.1, %13 ], [ %.4, %22 ], [ %.6, %31 ]
  %.2.fr = freeze i32 %.2
  %.not = icmp eq i32 %.2.fr, 0
  %spec.select = select i1 %.not, i32 %.019, i32 %.2.fr
  br label %.thread

.thread:                                          ; preds = %32, %3, %23, %14, %5
  %33 = phi i32 [ -173, %3 ], [ %24, %23 ], [ %15, %14 ], [ %6, %5 ], [ %spec.select, %32 ]
  call void @llvm.lifetime.end.p0(i64 224, ptr nonnull %4) #11
  ret i32 %33
}